target datalayout = "e-m:e-p270:32:32-p271:32:32-p272:64:64-i64:64-i128:128-f80:128-n8:16:32:64-S128"
target triple = "x86_64-pc-linux-gnu"

%struct.bipbuf_t = type { i64, i32, i32, i32, i32, [0 x i8] }

; Function Attrs: nounwind uwtable
define dso_local i32 @bipbuf_is_empty(ptr noundef %0) #0 {
  %2 = alloca ptr, align 8
  store ptr %0, ptr %2, align 8, !tbaa !4
  %3 = load ptr, ptr %2, align 8, !tbaa !4
  %4 = getelementptr inbounds nuw %struct.bipbuf_t, ptr %3, i32 0, i32 1
  %5 = load i32, ptr %4, align 8, !tbaa !8
  %6 = load ptr, ptr %2, align 8, !tbaa !4
  %7 = getelementptr inbounds nuw %struct.bipbuf_t, ptr %6, i32 0, i32 2
  %8 = load i32, ptr %7, align 4, !tbaa !8
  %9 = icmp eq i32 %5, %8
  %10 = zext i1 %9 to i32
  ret i32 %10
}